target datalayout = "e-m:e-p270:32:32-p271:32:32-p272:64:64-i64:64-i128:128-f80:128-n8:16:32:64-S128"
target triple = "x86_64-pc-linux-gnu"

%"class.std::basic_ios" = type { %"class.std::ios_base", ptr, i8, i8, ptr, ptr, ptr, ptr }
%"class.std::ios_base" = type { ptr, i64, i64, i32, i32, i32, ptr, %"struct.std::ios_base::_Words", [8 x %"struct.std::ios_base::_Words"], i32, ptr, %"class.std::locale" }
%"struct.std::ios_base::_Words" = type { ptr, i64 }
%"class.std::locale" = type { ptr }
%"class.std::__cxx11::basic_string" = type { %"struct.std::__cxx11::basic_string<char>::_Alloc_hider", i64, %union.anon }
%"struct.std::__cxx11::basic_string<char>::_Alloc_hider" = type { ptr }
%union.anon = type { i64, [8 x i8] }
%class.cfg_t = type { %"struct.std::pair.178", ptr, ptr, ptr, ptr, i8, i32, i64, i64, %"class.std::vector.205", %"class.std::optional.210", %"class.std::vector.152", i8, i8, i64 }
%"struct.std::pair.178" = type { i64, i64 }
%"class.std::vector.205" = type { %"struct.std::_Vector_base.206" }
%"struct.std::_Vector_base.206" = type { %"struct.std::_Vector_base<mem_cfg_t, std::allocator<mem_cfg_t>>::_Vector_impl" }
%"struct.std::_Vector_base<mem_cfg_t, std::allocator<mem_cfg_t>>::_Vector_impl" = type { %"struct.std::_Vector_base<mem_cfg_t, std::allocator<mem_cfg_t>>::_Vector_impl_data" }
%"struct.std::_Vector_base<mem_cfg_t, std::allocator<mem_cfg_t>>::_Vector_impl_data" = type { ptr, ptr, ptr }
%"class.std::optional.210" = type { %"struct.std::_Optional_base.211" }
%"struct.std::_Optional_base.211" = type { %"struct.std::_Optional_payload.213" }
%"struct.std::_Optional_payload.213" = type { %"struct.std::_Optional_payload_base.base.215", [7 x i8] }
%"struct.std::_Optional_payload_base.base.215" = type <{ %"union.std::_Optional_payload_base<unsigned long>::_Storage", i8 }>
%"union.std::_Optional_payload_base<unsigned long>::_Storage" = type { i64 }
%"class.std::vector.152" = type { %"struct.std::_Vector_base.153" }
%"struct.std::_Vector_base.153" = type { %"struct.std::_Vector_base<unsigned long, std::allocator<unsigned long>>::_Vector_impl" }
%"struct.std::_Vector_base<unsigned long, std::allocator<unsigned long>>::_Vector_impl" = type { %"struct.std::_Vector_base<unsigned long, std::allocator<unsigned long>>::_Vector_impl_data" }
%"struct.std::_Vector_base<unsigned long, std::allocator<unsigned long>>::_Vector_impl_data" = type { ptr, ptr, ptr }
%"class.std::__cxx11::basic_stringstream" = type { %"class.std::basic_iostream.base", %"class.std::__cxx11::basic_stringbuf", %"class.std::basic_ios" }
%"class.std::basic_iostream.base" = type { %"class.std::basic_istream.base", %"class.std::basic_ostream.base" }
%"class.std::basic_istream.base" = type { ptr, i64 }
%"class.std::basic_ostream.base" = type { ptr }
%"class.std::__cxx11::basic_stringbuf" = type { %"class.std::basic_streambuf", i32, %"class.std::__cxx11::basic_string" }
%"class.std::basic_streambuf" = type { ptr, ptr, ptr, ptr, ptr, ptr, ptr, %"class.std::locale" }

@.str.2 = private unnamed_addr constant [11 x i8] c"    clint@\00", align 1
@.str.3 = private unnamed_addr constant [68 x i8] c" {\0A      compatible = \22riscv,clint0\22;\0A      interrupts-extended = <\00", align 1
@.str.4 = private unnamed_addr constant [5 x i8] c"&CPU\00", align 1
@.str.5 = private unnamed_addr constant [13 x i8] c"_intc 3 &CPU\00", align 1
@.str.6 = private unnamed_addr constant [9 x i8] c"_intc 7 \00", align 1
@.str.7 = private unnamed_addr constant [19 x i8] c">;\0A      reg = <0x\00", align 1
@.str.8 = private unnamed_addr constant [4 x i8] c" 0x\00", align 1
@.str.9 = private unnamed_addr constant [11 x i8] c">;\0A    };\0A\00", align 1

; Function Attrs: mustprogress nounwind uwtable
define linkonce_odr noundef i64 @_ZNKSt6vectorImSaImEE4sizeEv(ptr noundef nonnull align 8 dereferenceable(24) %0) #5 comdat align 2 {
  %2 = alloca ptr, align 8
  store ptr %0, ptr %2, align 8
  %3 = load ptr, ptr %2, align 8
  %4 = getelementptr inbounds %"struct.std::_Vector_base.153", ptr %3, i32 0, i32 0
  %5 = getelementptr inbounds %"struct.std::_Vector_base<unsigned long, std::allocator<unsigned long>>::_Vector_impl_data", ptr %4, i32 0, i32 1
  %6 = load ptr, ptr %5, align 8
  %7 = getelementptr inbounds %"struct.std::_Vector_base.153", ptr %3, i32 0, i32 0
  %8 = getelementptr inbounds %"struct.std::_Vector_base<unsigned long, std::allocator<unsigned long>>::_Vector_impl_data", ptr %7, i32 0, i32 0
  %9 = load ptr, ptr %8, align 8
  %10 = ptrtoint ptr %6 to i64
  %11 = ptrtoint ptr %9 to i64
  %12 = sub i64 %10, %11
  %13 = sdiv exact i64 %12, 8
  ret i64 %13
}

; Function Attrs: mustprogress nounwind uwtable
define linkonce_odr noundef i64 @_ZNK5cfg_t6nprocsEv(ptr noundef nonnull align 8 dereferenceable(152) %0) #5 comdat align 2 {
  %2 = alloca ptr, align 8
  store ptr %0, ptr %2, align 8
  %3 = load ptr, ptr %2, align 8
  %4 = getelementptr inbounds %class.cfg_t, ptr %3, i32 0, i32 11
  %5 = call noundef i64 @_ZNKSt6vectorImSaImEE4sizeEv(ptr noundef nonnull align 8 dereferenceable(24) %4) #3
  ret i64 %5
}

; Function Attrs: mustprogress uwtable
define void @_Z18clint_generate_dtsB5cxx11PK5sim_t(ptr dead_on_unwind noalias writable sret(%"class.std::__cxx11::basic_string") align 8 %0, ptr noundef %1) #4 personality ptr @__gxx_personality_v0 {
  %3 = alloca ptr, align 8
  %4 = alloca ptr, align 8
  %5 = alloca %"class.std::__cxx11::basic_stringstream", align 8
  %6 = alloca ptr, align 8
  %7 = alloca i32, align 4
  %8 = alloca i64, align 8
  %9 = alloca i64, align 8
  %10 = alloca i64, align 8
  store ptr %0, ptr %3, align 8
  store ptr %1, ptr %4, align 8
  call void @_ZNSt7__cxx1118basic_stringstreamIcSt11char_traitsIcESaIcEEC1Ev(ptr noundef nonnull align 8 dereferenceable(128) %5)
  %11 = getelementptr inbounds i8, ptr %5, i64 16
  %12 = invoke noundef nonnull align 8 dereferenceable(8) ptr @_ZNSolsEPFRSt8ios_baseS0_E(ptr noundef nonnull align 8 dereferenceable(8) %11, ptr noundef @_ZSt3hexRSt8ios_base)
          to label %13 unwind label %50

13:                                               ; preds = %2
  %14 = invoke noundef nonnull align 8 dereferenceable(8) ptr @_ZStlsISt11char_traitsIcEERSt13basic_ostreamIcT_ES5_PKc(ptr noundef nonnull align 8 dereferenceable(8) %12, ptr noundef @.str.2)
          to label %15 unwind label %50

15:                                               ; preds = %13
  %16 = invoke noundef nonnull align 8 dereferenceable(8) ptr @_ZNSolsEi(ptr noundef nonnull align 8 dereferenceable(8) %14, i32 noundef 33554432)
          to label %17 unwind label %50

17:                                               ; preds = %15
  %18 = invoke noundef nonnull align 8 dereferenceable(8) ptr @_ZStlsISt11char_traitsIcEERSt13basic_ostreamIcT_ES5_PKc(ptr noundef nonnull align 8 dereferenceable(8) %16, ptr noundef @.str.3)
          to label %19 unwind label %50

19:                                               ; preds = %17
  %20 = invoke noundef nonnull align 8 dereferenceable(8) ptr @_ZNSolsEPFRSt8ios_baseS0_E(ptr noundef nonnull align 8 dereferenceable(8) %18, ptr noundef @_ZSt3decRSt8ios_base)
          to label %21 unwind label %50

21:                                               ; preds = %19
  store i64 0, ptr %8, align 8
  br label %22

22:                                               ; preds = %47, %21
  %23 = load i64, ptr %8, align 8
  %24 = load ptr, ptr %4, align 8
  %25 = load ptr, ptr %24, align 8
  %26 = getelementptr inbounds ptr, ptr %25, i64 16
  %27 = load ptr, ptr %26, align 8
  %28 = invoke noundef nonnull align 8 dereferenceable(152) ptr %27(ptr noundef nonnull align 8 dereferenceable(2888) %24)
          to label %29 unwind label %50

29:                                               ; preds = %22
  %30 = invoke noundef i64 @_ZNK5cfg_t6nprocsEv(ptr noundef nonnull align 8 dereferenceable(152) %28)
          to label %31 unwind label %50

31:                                               ; preds = %29
  %32 = icmp ult i64 %23, %30
  br i1 %32, label %33, label %54

33:                                               ; preds = %31
  %34 = getelementptr inbounds i8, ptr %5, i64 16
  %35 = invoke noundef nonnull align 8 dereferenceable(8) ptr @_ZStlsISt11char_traitsIcEERSt13basic_ostreamIcT_ES5_PKc(ptr noundef nonnull align 8 dereferenceable(8) %34, ptr noundef @.str.4)
          to label %36 unwind label %50

36:                                               ; preds = %33
  %37 = load i64, ptr %8, align 8
  %38 = invoke noundef nonnull align 8 dereferenceable(8) ptr @_ZNSolsEm(ptr noundef nonnull align 8 dereferenceable(8) %35, i64 noundef %37)
          to label %39 unwind label %50

39:                                               ; preds = %36
  %40 = invoke noundef nonnull align 8 dereferenceable(8) ptr @_ZStlsISt11char_traitsIcEERSt13basic_ostreamIcT_ES5_PKc(ptr noundef nonnull align 8 dereferenceable(8) %38, ptr noundef @.str.5)
          to label %41 unwind label %50

41:                                               ; preds = %39
  %42 = load i64, ptr %8, align 8
  %43 = invoke noundef nonnull align 8 dereferenceable(8) ptr @_ZNSolsEm(ptr noundef nonnull align 8 dereferenceable(8) %40, i64 noundef %42)
          to label %44 unwind label %50

44:                                               ; preds = %41
  %45 = invoke noundef nonnull align 8 dereferenceable(8) ptr @_ZStlsISt11char_traitsIcEERSt13basic_ostreamIcT_ES5_PKc(ptr noundef nonnull align 8 dereferenceable(8) %43, ptr noundef @.str.6)
          to label %46 unwind label %50

46:                                               ; preds = %44
  br label %47

47:                                               ; preds = %46
  %48 = load i64, ptr %8, align 8
  %49 = add i64 %48, 1
  store i64 %49, ptr %8, align 8
  br label %22, !llvm.loop !9

50:                                               ; preds = %83, %81, %77, %75, %71, %69, %65, %63, %59, %57, %54, %44, %41, %39, %36, %33, %29, %22, %19, %17, %15, %13, %2
  %51 = landingpad { ptr, i32 }
          cleanup
  %52 = extractvalue { ptr, i32 } %51, 0
  store ptr %52, ptr %6, align 8
  %53 = extractvalue { ptr, i32 } %51, 1
  store i32 %53, ptr %7, align 4
  call void @_ZNSt7__cxx1118basic_stringstreamIcSt11char_traitsIcESaIcEED1Ev(ptr noundef nonnull align 8 dereferenceable(128) %5) #3
  br label %85

54:                                               ; preds = %31
  store i64 33554432, ptr %9, align 8
  store i64 786432, ptr %10, align 8
  %55 = getelementptr inbounds i8, ptr %5, i64 16
  %56 = invoke noundef nonnull align 8 dereferenceable(8) ptr @_ZNSolsEPFRSt8ios_baseS0_E(ptr noundef nonnull align 8 dereferenceable(8) %55, ptr noundef @_ZSt3hexRSt8ios_base)
          to label %57 unwind label %50

57:                                               ; preds = %54
  %58 = invoke noundef nonnull align 8 dereferenceable(8) ptr @_ZStlsISt11char_traitsIcEERSt13basic_ostreamIcT_ES5_PKc(ptr noundef nonnull align 8 dereferenceable(8) %56, ptr noundef @.str.7)
          to label %59 unwind label %50

59:                                               ; preds = %57
  %60 = load i64, ptr %9, align 8
  %61 = lshr i64 %60, 32
  %62 = invoke noundef nonnull align 8 dereferenceable(8) ptr @_ZNSolsEm(ptr noundef nonnull align 8 dereferenceable(8) %58, i64 noundef %61)
          to label %63 unwind label %50

63:                                               ; preds = %59
  %64 = invoke noundef nonnull align 8 dereferenceable(8) ptr @_ZStlsISt11char_traitsIcEERSt13basic_ostreamIcT_ES5_PKc(ptr noundef nonnull align 8 dereferenceable(8) %62, ptr noundef @.str.8)
          to label %65 unwind label %50

65:                                               ; preds = %63
  %66 = load i64, ptr %9, align 8
  %67 = and i64 %66, 4294967295
  %68 = invoke noundef nonnull align 8 dereferenceable(8) ptr @_ZNSolsEm(ptr noundef nonnull align 8 dereferenceable(8) %64, i64 noundef %67)
          to label %69 unwind label %50

69:                                               ; preds = %65
  %70 = invoke noundef nonnull align 8 dereferenceable(8) ptr @_ZStlsISt11char_traitsIcEERSt13basic_ostreamIcT_ES5_PKc(ptr noundef nonnull align 8 dereferenceable(8) %68, ptr noundef @.str.8)
          to label %71 unwind label %50

71:                                               ; preds = %69
  %72 = load i64, ptr %10, align 8
  %73 = lshr i64 %72, 32
  %74 = invoke noundef nonnull align 8 dereferenceable(8) ptr @_ZNSolsEm(ptr noundef nonnull align 8 dereferenceable(8) %70, i64 noundef %73)
          to label %75 unwind label %50

75:                                               ; preds = %71
  %76 = invoke noundef nonnull align 8 dereferenceable(8) ptr @_ZStlsISt11char_traitsIcEERSt13basic_ostreamIcT_ES5_PKc(ptr noundef nonnull align 8 dereferenceable(8) %74, ptr noundef @.str.8)
          to label %77 unwind label %50

77:                                               ; preds = %75
  %78 = load i64, ptr %10, align 8
  %79 = and i64 %78, 4294967295
  %80 = invoke noundef nonnull align 8 dereferenceable(8) ptr @_ZNSolsEm(ptr noundef nonnull align 8 dereferenceable(8) %76, i64 noundef %79)
          to label %81 unwind label %50

81:                                               ; preds = %77
  %82 = invoke noundef nonnull align 8 dereferenceable(8) ptr @_ZStlsISt11char_traitsIcEERSt13basic_ostreamIcT_ES5_PKc(ptr noundef nonnull align 8 dereferenceable(8) %80, ptr noundef @.str.9)
          to label %83 unwind label %50

83:                                               ; preds = %81
  invoke void @_ZNKRSt7__cxx1118basic_stringstreamIcSt11char_traitsIcESaIcEE3strEv(ptr dead_on_unwind writable sret(%"class.std::__cxx11::basic_string") align 8 %0, ptr noundef nonnull align 8 dereferenceable(128) %5)
          to label %84 unwind label %50

84:                                               ; preds = %83
  call void @_ZNSt7__cxx1118basic_stringstreamIcSt11char_traitsIcESaIcEED1Ev(ptr noundef nonnull align 8 dereferenceable(128) %5) #3
  ret void

85:                                               ; preds = %50
  %86 = load ptr, ptr %6, align 8
  %87 = load i32, ptr %7, align 4
  %88 = insertvalue { ptr, i32 } poison, ptr %86, 0
  %89 = insertvalue { ptr, i32 } %88, i32 %87, 1
  resume { ptr, i32 } %89
}